target datalayout = "e-m:e-p270:32:32-p271:32:32-p272:64:64-i64:64-i128:128-f80:128-n8:16:32:64-S128"
target triple = "x86_64-pc-linux-gnu"

%struct.ma_biquad_config = type { i32, i32, double, double, double, double, double, double }
%struct.ma_biquad = type { i32, i32, %union.ma_biquad_coefficient, %union.ma_biquad_coefficient, %union.ma_biquad_coefficient, %union.ma_biquad_coefficient, %union.ma_biquad_coefficient, ptr, ptr, ptr, i32 }
%union.ma_biquad_coefficient = type { float }
%struct.ma_bpf2_config = type { i32, i32, i32, double, double }
%struct.ma_bpf2 = type { %struct.ma_biquad }

; Function Attrs: nounwind uwtable
define internal i32 @ma_biquad_float_to_fp(double noundef %0) #0 {
  %2 = alloca double, align 8
  store double %0, ptr %2, align 8
  %3 = load double, ptr %2, align 8
  %4 = fmul double %3, 1.638400e+04
  %5 = fptosi double %4 to i32
  ret i32 %5
}

; Function Attrs: alwaysinline nounwind uwtable
define internal double @ma_cosd(double noundef %0) #7 {
  %2 = alloca double, align 8
  store double %0, ptr %2, align 8
  %3 = load double, ptr %2, align 8
  %4 = fsub double 0x3FF921FB54442D18, %3
  %5 = call double @ma_sind(double noundef %4)
  ret double %5
}

; Function Attrs: alwaysinline nounwind uwtable
define internal double @ma_sind(double noundef %0) #7 {
  %2 = alloca double, align 8
  store double %0, ptr %2, align 8
  %3 = load double, ptr %2, align 8
  %4 = call double @sin(double noundef %3) #21
  ret double %4
}

; Function Attrs: nounwind uwtable
define hidden i32 @ma_biquad_reinit(ptr noundef %0, ptr noundef %1) #0 {
  %3 = alloca i32, align 4
  %4 = alloca ptr, align 8
  %5 = alloca ptr, align 8
  store ptr %0, ptr %4, align 8
  store ptr %1, ptr %5, align 8
  %6 = load ptr, ptr %5, align 8
  %7 = icmp eq ptr %6, null
  br i1 %7, label %11, label %8

8:                                                ; preds = %2
  %9 = load ptr, ptr %4, align 8
  %10 = icmp eq ptr %9, null
  br i1 %10, label %11, label %12

11:                                               ; preds = %8, %2
  store i32 -2, ptr %3, align 4
  br label %175

12:                                               ; preds = %8
  %13 = load ptr, ptr %4, align 8
  %14 = getelementptr inbounds nuw %struct.ma_biquad_config, ptr %13, i32 0, i32 5
  %15 = load double, ptr %14, align 8
  %16 = fcmp oeq double %15, 0.000000e+00
  br i1 %16, label %17, label %18

17:                                               ; preds = %12
  store i32 -2, ptr %3, align 4
  br label %175

18:                                               ; preds = %12
  %19 = load ptr, ptr %4, align 8
  %20 = getelementptr inbounds nuw %struct.ma_biquad_config, ptr %19, i32 0, i32 0
  %21 = load i32, ptr %20, align 8
  %22 = icmp ne i32 %21, 5
  br i1 %22, label %23, label %29

23:                                               ; preds = %18
  %24 = load ptr, ptr %4, align 8
  %25 = getelementptr inbounds nuw %struct.ma_biquad_config, ptr %24, i32 0, i32 0
  %26 = load i32, ptr %25, align 8
  %27 = icmp ne i32 %26, 2
  br i1 %27, label %28, label %29

28:                                               ; preds = %23
  store i32 -2, ptr %3, align 4
  br label %175

29:                                               ; preds = %23, %18
  %30 = load ptr, ptr %5, align 8
  %31 = getelementptr inbounds nuw %struct.ma_biquad, ptr %30, i32 0, i32 0
  %32 = load i32, ptr %31, align 8
  %33 = icmp ne i32 %32, 0
  br i1 %33, label %34, label %43

34:                                               ; preds = %29
  %35 = load ptr, ptr %5, align 8
  %36 = getelementptr inbounds nuw %struct.ma_biquad, ptr %35, i32 0, i32 0
  %37 = load i32, ptr %36, align 8
  %38 = load ptr, ptr %4, align 8
  %39 = getelementptr inbounds nuw %struct.ma_biquad_config, ptr %38, i32 0, i32 0
  %40 = load i32, ptr %39, align 8
  %41 = icmp ne i32 %37, %40
  br i1 %41, label %42, label %43

42:                                               ; preds = %34
  store i32 -3, ptr %3, align 4
  br label %175

43:                                               ; preds = %34, %29
  %44 = load ptr, ptr %5, align 8
  %45 = getelementptr inbounds nuw %struct.ma_biquad, ptr %44, i32 0, i32 1
  %46 = load i32, ptr %45, align 4
  %47 = icmp ne i32 %46, 0
  br i1 %47, label %48, label %57

48:                                               ; preds = %43
  %49 = load ptr, ptr %5, align 8
  %50 = getelementptr inbounds nuw %struct.ma_biquad, ptr %49, i32 0, i32 1
  %51 = load i32, ptr %50, align 4
  %52 = load ptr, ptr %4, align 8
  %53 = getelementptr inbounds nuw %struct.ma_biquad_config, ptr %52, i32 0, i32 1
  %54 = load i32, ptr %53, align 4
  %55 = icmp ne i32 %51, %54
  br i1 %55, label %56, label %57

56:                                               ; preds = %48
  store i32 -3, ptr %3, align 4
  br label %175

57:                                               ; preds = %48, %43
  %58 = load ptr, ptr %4, align 8
  %59 = getelementptr inbounds nuw %struct.ma_biquad_config, ptr %58, i32 0, i32 0
  %60 = load i32, ptr %59, align 8
  %61 = load ptr, ptr %5, align 8
  %62 = getelementptr inbounds nuw %struct.ma_biquad, ptr %61, i32 0, i32 0
  store i32 %60, ptr %62, align 8
  %63 = load ptr, ptr %4, align 8
  %64 = getelementptr inbounds nuw %struct.ma_biquad_config, ptr %63, i32 0, i32 1
  %65 = load i32, ptr %64, align 4
  %66 = load ptr, ptr %5, align 8
  %67 = getelementptr inbounds nuw %struct.ma_biquad, ptr %66, i32 0, i32 1
  store i32 %65, ptr %67, align 4
  %68 = load ptr, ptr %4, align 8
  %69 = getelementptr inbounds nuw %struct.ma_biquad_config, ptr %68, i32 0, i32 0
  %70 = load i32, ptr %69, align 8
  %71 = icmp eq i32 %70, 5
  br i1 %71, label %72, label %123

72:                                               ; preds = %57
  %73 = load ptr, ptr %4, align 8
  %74 = getelementptr inbounds nuw %struct.ma_biquad_config, ptr %73, i32 0, i32 2
  %75 = load double, ptr %74, align 8
  %76 = load ptr, ptr %4, align 8
  %77 = getelementptr inbounds nuw %struct.ma_biquad_config, ptr %76, i32 0, i32 5
  %78 = load double, ptr %77, align 8
  %79 = fdiv double %75, %78
  %80 = fptrunc double %79 to float
  %81 = load ptr, ptr %5, align 8
  %82 = getelementptr inbounds nuw %struct.ma_biquad, ptr %81, i32 0, i32 2
  store float %80, ptr %82, align 8
  %83 = load ptr, ptr %4, align 8
  %84 = getelementptr inbounds nuw %struct.ma_biquad_config, ptr %83, i32 0, i32 3
  %85 = load double, ptr %84, align 8
  %86 = load ptr, ptr %4, align 8
  %87 = getelementptr inbounds nuw %struct.ma_biquad_config, ptr %86, i32 0, i32 5
  %88 = load double, ptr %87, align 8
  %89 = fdiv double %85, %88
  %90 = fptrunc double %89 to float
  %91 = load ptr, ptr %5, align 8
  %92 = getelementptr inbounds nuw %struct.ma_biquad, ptr %91, i32 0, i32 3
  store float %90, ptr %92, align 4
  %93 = load ptr, ptr %4, align 8
  %94 = getelementptr inbounds nuw %struct.ma_biquad_config, ptr %93, i32 0, i32 4
  %95 = load double, ptr %94, align 8
  %96 = load ptr, ptr %4, align 8
  %97 = getelementptr inbounds nuw %struct.ma_biquad_config, ptr %96, i32 0, i32 5
  %98 = load double, ptr %97, align 8
  %99 = fdiv double %95, %98
  %100 = fptrunc double %99 to float
  %101 = load ptr, ptr %5, align 8
  %102 = getelementptr inbounds nuw %struct.ma_biquad, ptr %101, i32 0, i32 4
  store float %100, ptr %102, align 8
  %103 = load ptr, ptr %4, align 8
  %104 = getelementptr inbounds nuw %struct.ma_biquad_config, ptr %103, i32 0, i32 6
  %105 = load double, ptr %104, align 8
  %106 = load ptr, ptr %4, align 8
  %107 = getelementptr inbounds nuw %struct.ma_biquad_config, ptr %106, i32 0, i32 5
  %108 = load double, ptr %107, align 8
  %109 = fdiv double %105, %108
  %110 = fptrunc double %109 to float
  %111 = load ptr, ptr %5, align 8
  %112 = getelementptr inbounds nuw %struct.ma_biquad, ptr %111, i32 0, i32 5
  store float %110, ptr %112, align 4
  %113 = load ptr, ptr %4, align 8
  %114 = getelementptr inbounds nuw %struct.ma_biquad_config, ptr %113, i32 0, i32 7
  %115 = load double, ptr %114, align 8
  %116 = load ptr, ptr %4, align 8
  %117 = getelementptr inbounds nuw %struct.ma_biquad_config, ptr %116, i32 0, i32 5
  %118 = load double, ptr %117, align 8
  %119 = fdiv double %115, %118
  %120 = fptrunc double %119 to float
  %121 = load ptr, ptr %5, align 8
  %122 = getelementptr inbounds nuw %struct.ma_biquad, ptr %121, i32 0, i32 6
  store float %120, ptr %122, align 8
  br label %174

123:                                              ; preds = %57
  %124 = load ptr, ptr %4, align 8
  %125 = getelementptr inbounds nuw %struct.ma_biquad_config, ptr %124, i32 0, i32 2
  %126 = load double, ptr %125, align 8
  %127 = load ptr, ptr %4, align 8
  %128 = getelementptr inbounds nuw %struct.ma_biquad_config, ptr %127, i32 0, i32 5
  %129 = load double, ptr %128, align 8
  %130 = fdiv double %126, %129
  %131 = call i32 @ma_biquad_float_to_fp(double noundef %130)
  %132 = load ptr, ptr %5, align 8
  %133 = getelementptr inbounds nuw %struct.ma_biquad, ptr %132, i32 0, i32 2
  store i32 %131, ptr %133, align 8
  %134 = load ptr, ptr %4, align 8
  %135 = getelementptr inbounds nuw %struct.ma_biquad_config, ptr %134, i32 0, i32 3
  %136 = load double, ptr %135, align 8
  %137 = load ptr, ptr %4, align 8
  %138 = getelementptr inbounds nuw %struct.ma_biquad_config, ptr %137, i32 0, i32 5
  %139 = load double, ptr %138, align 8
  %140 = fdiv double %136, %139
  %141 = call i32 @ma_biquad_float_to_fp(double noundef %140)
  %142 = load ptr, ptr %5, align 8
  %143 = getelementptr inbounds nuw %struct.ma_biquad, ptr %142, i32 0, i32 3
  store i32 %141, ptr %143, align 4
  %144 = load ptr, ptr %4, align 8
  %145 = getelementptr inbounds nuw %struct.ma_biquad_config, ptr %144, i32 0, i32 4
  %146 = load double, ptr %145, align 8
  %147 = load ptr, ptr %4, align 8
  %148 = getelementptr inbounds nuw %struct.ma_biquad_config, ptr %147, i32 0, i32 5
  %149 = load double, ptr %148, align 8
  %150 = fdiv double %146, %149
  %151 = call i32 @ma_biquad_float_to_fp(double noundef %150)
  %152 = load ptr, ptr %5, align 8
  %153 = getelementptr inbounds nuw %struct.ma_biquad, ptr %152, i32 0, i32 4
  store i32 %151, ptr %153, align 8
  %154 = load ptr, ptr %4, align 8
  %155 = getelementptr inbounds nuw %struct.ma_biquad_config, ptr %154, i32 0, i32 6
  %156 = load double, ptr %155, align 8
  %157 = load ptr, ptr %4, align 8
  %158 = getelementptr inbounds nuw %struct.ma_biquad_config, ptr %157, i32 0, i32 5
  %159 = load double, ptr %158, align 8
  %160 = fdiv double %156, %159
  %161 = call i32 @ma_biquad_float_to_fp(double noundef %160)
  %162 = load ptr, ptr %5, align 8
  %163 = getelementptr inbounds nuw %struct.ma_biquad, ptr %162, i32 0, i32 5
  store i32 %161, ptr %163, align 4
  %164 = load ptr, ptr %4, align 8
  %165 = getelementptr inbounds nuw %struct.ma_biquad_config, ptr %164, i32 0, i32 7
  %166 = load double, ptr %165, align 8
  %167 = load ptr, ptr %4, align 8
  %168 = getelementptr inbounds nuw %struct.ma_biquad_config, ptr %167, i32 0, i32 5
  %169 = load double, ptr %168, align 8
  %170 = fdiv double %166, %169
  %171 = call i32 @ma_biquad_float_to_fp(double noundef %170)
  %172 = load ptr, ptr %5, align 8
  %173 = getelementptr inbounds nuw %struct.ma_biquad, ptr %172, i32 0, i32 6
  store i32 %171, ptr %173, align 8
  br label %174

174:                                              ; preds = %123, %72
  store i32 0, ptr %3, align 4
  br label %175

175:                                              ; preds = %174, %56, %42, %28, %17, %11
  %176 = load i32, ptr %3, align 4
  ret i32 %176
}

; Function Attrs: alwaysinline nounwind uwtable
define internal void @ma_bpf2__get_biquad_config(ptr dead_on_unwind noalias writable sret(%struct.ma_biquad_config) align 8 %0, ptr noundef %1) #7 {
  %3 = alloca ptr, align 8
  %4 = alloca double, align 8
  %5 = alloca double, align 8
  %6 = alloca double, align 8
  %7 = alloca double, align 8
  %8 = alloca double, align 8
  store ptr %1, ptr %3, align 8
  call void @llvm.lifetime.start.p0(i64 8, ptr %4) #21
  call void @llvm.lifetime.start.p0(i64 8, ptr %5) #21
  call void @llvm.lifetime.start.p0(i64 8, ptr %6) #21
  call void @llvm.lifetime.start.p0(i64 8, ptr %7) #21
  call void @llvm.lifetime.start.p0(i64 8, ptr %8) #21
  %9 = load ptr, ptr %3, align 8
  %10 = getelementptr inbounds nuw %struct.ma_bpf2_config, ptr %9, i32 0, i32 4
  %11 = load double, ptr %10, align 8
  store double %11, ptr %4, align 8
  %12 = load ptr, ptr %3, align 8
  %13 = getelementptr inbounds nuw %struct.ma_bpf2_config, ptr %12, i32 0, i32 3
  %14 = load double, ptr %13, align 8
  %15 = fmul double 0x401921FB54442D18, %14
  %16 = load ptr, ptr %3, align 8
  %17 = getelementptr inbounds nuw %struct.ma_bpf2_config, ptr %16, i32 0, i32 2
  %18 = load i32, ptr %17, align 8
  %19 = uitofp i32 %18 to double
  %20 = fdiv double %15, %19
  store double %20, ptr %5, align 8
  %21 = load double, ptr %5, align 8
  %22 = call double @ma_sind(double noundef %21)
  store double %22, ptr %6, align 8
  %23 = load double, ptr %5, align 8
  %24 = call double @ma_cosd(double noundef %23)
  store double %24, ptr %7, align 8
  %25 = load double, ptr %6, align 8
  %26 = load double, ptr %4, align 8
  %27 = fmul double 2.000000e+00, %26
  %28 = fdiv double %25, %27
  store double %28, ptr %8, align 8
  %29 = load double, ptr %4, align 8
  %30 = load double, ptr %8, align 8
  %31 = fmul double %29, %30
  %32 = getelementptr inbounds nuw %struct.ma_biquad_config, ptr %0, i32 0, i32 2
  store double %31, ptr %32, align 8
  %33 = getelementptr inbounds nuw %struct.ma_biquad_config, ptr %0, i32 0, i32 3
  store double 0.000000e+00, ptr %33, align 8
  %34 = load double, ptr %4, align 8
  %35 = fneg double %34
  %36 = load double, ptr %8, align 8
  %37 = fmul double %35, %36
  %38 = getelementptr inbounds nuw %struct.ma_biquad_config, ptr %0, i32 0, i32 4
  store double %37, ptr %38, align 8
  %39 = load double, ptr %8, align 8
  %40 = fadd double 1.000000e+00, %39
  %41 = getelementptr inbounds nuw %struct.ma_biquad_config, ptr %0, i32 0, i32 5
  store double %40, ptr %41, align 8
  %42 = load double, ptr %7, align 8
  %43 = fmul double -2.000000e+00, %42
  %44 = getelementptr inbounds nuw %struct.ma_biquad_config, ptr %0, i32 0, i32 6
  store double %43, ptr %44, align 8
  %45 = load double, ptr %8, align 8
  %46 = fsub double 1.000000e+00, %45
  %47 = getelementptr inbounds nuw %struct.ma_biquad_config, ptr %0, i32 0, i32 7
  store double %46, ptr %47, align 8
  %48 = load ptr, ptr %3, align 8
  %49 = getelementptr inbounds nuw %struct.ma_bpf2_config, ptr %48, i32 0, i32 0
  %50 = load i32, ptr %49, align 8
  %51 = getelementptr inbounds nuw %struct.ma_biquad_config, ptr %0, i32 0, i32 0
  store i32 %50, ptr %51, align 8
  %52 = load ptr, ptr %3, align 8
  %53 = getelementptr inbounds nuw %struct.ma_bpf2_config, ptr %52, i32 0, i32 1
  %54 = load i32, ptr %53, align 4
  %55 = getelementptr inbounds nuw %struct.ma_biquad_config, ptr %0, i32 0, i32 1
  store i32 %54, ptr %55, align 4
  call void @llvm.lifetime.end.p0(i64 8, ptr %8) #21
  call void @llvm.lifetime.end.p0(i64 8, ptr %7) #21
  call void @llvm.lifetime.end.p0(i64 8, ptr %6) #21
  call void @llvm.lifetime.end.p0(i64 8, ptr %5) #21
  call void @llvm.lifetime.end.p0(i64 8, ptr %4) #21
  ret void
}

; Function Attrs: nounwind uwtable
define hidden i32 @ma_bpf2_reinit(ptr noundef %0, ptr noundef %1) #0 {
  %3 = alloca i32, align 4
  %4 = alloca ptr, align 8
  %5 = alloca ptr, align 8
  %6 = alloca i32, align 4
  %7 = alloca %struct.ma_biquad_config, align 8
  %8 = alloca i32, align 4
  %9 = alloca %struct.ma_biquad_config, align 8
  store ptr %0, ptr %4, align 8
  store ptr %1, ptr %5, align 8
  call void @llvm.lifetime.start.p0(i64 4, ptr %6) #21
  call void @llvm.lifetime.start.p0(i64 56, ptr %7) #21
  %10 = load ptr, ptr %5, align 8
  %11 = icmp eq ptr %10, null
  br i1 %11, label %15, label %12

12:                                               ; preds = %2
  %13 = load ptr, ptr %4, align 8
  %14 = icmp eq ptr %13, null
  br i1 %14, label %15, label %16

15:                                               ; preds = %12, %2
  store i32 -2, ptr %3, align 4
  store i32 1, ptr %8, align 4
  br label %26

16:                                               ; preds = %12
  call void @llvm.lifetime.start.p0(i64 56, ptr %9) #21
  %17 = load ptr, ptr %4, align 8
  call void @ma_bpf2__get_biquad_config(ptr dead_on_unwind writable sret(%struct.ma_biquad_config) align 8 %9, ptr noundef %17)
  call void @llvm.memcpy.p0.p0.i64(ptr align 8 %7, ptr align 8 %9, i64 56, i1 false)
  call void @llvm.lifetime.end.p0(i64 56, ptr %9) #21
  %18 = load ptr, ptr %5, align 8
  %19 = getelementptr inbounds nuw %struct.ma_bpf2, ptr %18, i32 0, i32 0
  %20 = call i32 @ma_biquad_reinit(ptr noundef %7, ptr noundef %19)
  store i32 %20, ptr %6, align 4
  %21 = load i32, ptr %6, align 4
  %22 = icmp ne i32 %21, 0
  br i1 %22, label %23, label %25

23:                                               ; preds = %16
  %24 = load i32, ptr %6, align 4
  store i32 %24, ptr %3, align 4
  store i32 1, ptr %8, align 4
  br label %26

25:                                               ; preds = %16
  store i32 0, ptr %3, align 4
  store i32 1, ptr %8, align 4
  br label %26

26:                                               ; preds = %25, %23, %15
  call void @llvm.lifetime.end.p0(i64 56, ptr %7) #21
  call void @llvm.lifetime.end.p0(i64 4, ptr %6) #21
  %27 = load i32, ptr %3, align 4
  ret i32 %27
}