; Function Attrs: mustprogress nofree nounwind willreturn memory(write, argmem: readwrite) uwtable
define hidden range(i32 -3, 1) i32 @ma_bpf2_reinit(ptr noundef readonly captures(address_is_null) %0, ptr noundef captures(address_is_null) %1) local_unnamed_addr #36 {
  %3 = icmp eq ptr %1, null
  %4 = icmp eq ptr %0, null
  %or.cond = or i1 %4, %3
  br i1 %or.cond, label %ma_biquad_reinit.exit, label %5

5:                                                ; preds = %2
  %6 = getelementptr inbounds nuw i8, ptr %0, i64 24
  %7 = load double, ptr %6, align 8, !noalias !75
  %8 = getelementptr inbounds nuw i8, ptr %0, i64 16
  %9 = load double, ptr %8, align 8, !noalias !75
  %10 = fmul double %9, 0x401921FB54442D18
  %11 = getelementptr inbounds nuw i8, ptr %0, i64 8
  %12 = load i32, ptr %11, align 8, !noalias !75
  %13 = uitofp i32 %12 to double
  %14 = fdiv double %10, %13
  %15 = tail call double @sin(double noundef %14) #72, !noalias !75
  %16 = fsub double 0x3FF921FB54442D18, %14
  %17 = tail call double @sin(double noundef %16) #72, !noalias !75
  %18 = fmul double %7, 2.000000e+00
  %19 = fdiv double %15, %18
  %20 = fmul double %7, %19
  %21 = fneg double %7
  %22 = fmul double %19, %21
  %23 = fadd double %19, 1.000000e+00
  %24 = fmul double %17, -2.000000e+00
  %25 = fsub double 1.000000e+00, %19
  %26 = load i32, ptr %0, align 8, !noalias !75
  %27 = getelementptr inbounds nuw i8, ptr %0, i64 4
  %28 = load i32, ptr %27, align 4, !noalias !75
  %29 = fcmp oeq double %23, 0.000000e+00
  br i1 %29, label %ma_biquad_reinit.exit, label %30

30:                                               ; preds = %5
  switch i32 %26, label %ma_biquad_reinit.exit [
    i32 5, label %31
    i32 2, label %31
  ]

31:                                               ; preds = %30, %30
  %32 = load i32, ptr %1, align 8
  %.not53.i = icmp eq i32 %32, 0
  %.not54.i = icmp eq i32 %32, %26
  %or.cond57.i = or i1 %.not53.i, %.not54.i
  br i1 %or.cond57.i, label %33, label %ma_biquad_reinit.exit

33:                                               ; preds = %31
  %34 = getelementptr inbounds nuw i8, ptr %1, i64 4
  %35 = load i32, ptr %34, align 4
  %.not55.i = icmp eq i32 %35, 0
  %.not56.i = icmp eq i32 %35, %28
  %or.cond29 = select i1 %.not55.i, i1 true, i1 %.not56.i
  br i1 %or.cond29, label %36, label %ma_biquad_reinit.exit

36:                                               ; preds = %33
  store i32 %26, ptr %1, align 8
  store i32 %28, ptr %34, align 4
  %37 = icmp eq i32 %26, 5
  %38 = fdiv double %20, %23
  br i1 %37, label %39, label %54

39:                                               ; preds = %36
  %40 = fptrunc double %38 to float
  %41 = getelementptr inbounds nuw i8, ptr %1, i64 8
  store float %40, ptr %41, align 8
  %42 = fdiv double 0.000000e+00, %23
  %43 = fptrunc double %42 to float
  %44 = getelementptr inbounds nuw i8, ptr %1, i64 12
  store float %43, ptr %44, align 4
  %45 = fdiv double %22, %23
  %46 = fptrunc double %45 to float
  %47 = getelementptr inbounds nuw i8, ptr %1, i64 16
  store float %46, ptr %47, align 8
  %48 = fdiv double %24, %23
  %49 = fptrunc double %48 to float
  %50 = getelementptr inbounds nuw i8, ptr %1, i64 20
  store float %49, ptr %50, align 4
  %51 = fdiv double %25, %23
  %52 = fptrunc double %51 to float
  %53 = getelementptr inbounds nuw i8, ptr %1, i64 24
  store float %52, ptr %53, align 8
  br label %ma_biquad_reinit.exit

54:                                               ; preds = %36
  %55 = fmul double %38, 1.638400e+04
  %56 = fptosi double %55 to i32
  %57 = getelementptr inbounds nuw i8, ptr %1, i64 8
  store i32 %56, ptr %57, align 8
  %58 = fdiv double 0.000000e+00, %23
  %59 = fmul double %58, 1.638400e+04
  %60 = fptosi double %59 to i32
  %61 = getelementptr inbounds nuw i8, ptr %1, i64 12
  store i32 %60, ptr %61, align 4
  %62 = fdiv double %22, %23
  %63 = fmul double %62, 1.638400e+04
  %64 = fptosi double %63 to i32
  %65 = getelementptr inbounds nuw i8, ptr %1, i64 16
  store i32 %64, ptr %65, align 8
  %66 = fdiv double %24, %23
  %67 = fmul double %66, 1.638400e+04
  %68 = fptosi double %67 to i32
  %69 = getelementptr inbounds nuw i8, ptr %1, i64 20
  store i32 %68, ptr %69, align 4
  %70 = fdiv double %25, %23
  %71 = fmul double %70, 1.638400e+04
  %72 = fptosi double %71 to i32
  %73 = getelementptr inbounds nuw i8, ptr %1, i64 24
  store i32 %72, ptr %73, align 8
  br label %ma_biquad_reinit.exit

ma_biquad_reinit.exit:                            ; preds = %54, %39, %31, %30, %5, %33, %2
  %.0 = phi i32 [ -2, %2 ], [ -2, %5 ], [ -2, %30 ], [ 0, %54 ], [ 0, %39 ], [ -3, %31 ], [ -3, %33 ]
  ret i32 %.0
}